; Function Attrs: mustprogress uwtable
define hidden noundef zeroext i1 @_ZN4cvc58internal6theory5arith6linear9DioSolver8gcdIsOneEm(ptr noundef nonnull readonly align 8 captures(none) dereferenceable(1032) %0, i64 noundef %1) local_unnamed_addr #3 align 2 personality ptr @__gxx_personality_v0 {
  %3 = alloca %"class.cvc5::internal::Integer", align 8
  %4 = alloca %"class.cvc5::internal::Integer", align 8
  %5 = getelementptr inbounds nuw i8, ptr %0, i64 312
  %6 = load ptr, ptr %5, align 8, !tbaa !101
  %7 = getelementptr inbounds nuw %"struct.cvc5::internal::theory::arith::linear::DioSolver::Constraint", ptr %6, i64 %1
  call void @llvm.lifetime.start.p0(i64 16, ptr nonnull %3) #25
  call void @_ZNK4cvc58internal6theory5arith6linear7SumPair3gcdEv(ptr dead_on_unwind nonnull writable sret(%"class.cvc5::internal::Integer") align 8 %3, ptr noundef nonnull align 8 dereferenceable(8) %7)
  call void @llvm.lifetime.start.p0(i64 16, ptr nonnull %4) #25
  invoke void @__gmpz_init_set_ui(ptr noundef nonnull align 8 dereferenceable(16) %4, i64 noundef 1)
          to label %_ZN4cvc58internal7IntegerC2Ei.exit unwind label %16

_ZN4cvc58internal7IntegerC2Ei.exit:               ; preds = %2
  %8 = invoke noundef zeroext i1 @_ZNK4cvc58internal7IntegereqERKS1_(ptr noundef nonnull align 8 dereferenceable(16) %3, ptr noundef nonnull align 8 dereferenceable(16) %4)
          to label %9 unwind label %18

9:                                                ; preds = %_ZN4cvc58internal7IntegerC2Ei.exit
  invoke void @__gmpz_clear(ptr noundef nonnull align 8 dereferenceable(16) %4)
          to label %_ZN4cvc58internal7IntegerD2Ev.exit unwind label %10

10:                                               ; preds = %9
  %11 = landingpad { ptr, i32 }
          catch ptr null
  %12 = extractvalue { ptr, i32 } %11, 0
  call void @__clang_call_terminate(ptr %12) #26
  unreachable

_ZN4cvc58internal7IntegerD2Ev.exit:               ; preds = %9
  call void @llvm.lifetime.end.p0(i64 16, ptr nonnull %4) #25
  invoke void @__gmpz_clear(ptr noundef nonnull align 8 dereferenceable(16) %3)
          to label %_ZN4cvc58internal7IntegerD2Ev.exit6 unwind label %13

13:                                               ; preds = %_ZN4cvc58internal7IntegerD2Ev.exit
  %14 = landingpad { ptr, i32 }
          catch ptr null
  %15 = extractvalue { ptr, i32 } %14, 0
  call void @__clang_call_terminate(ptr %15) #26
  unreachable

_ZN4cvc58internal7IntegerD2Ev.exit6:              ; preds = %_ZN4cvc58internal7IntegerD2Ev.exit
  call void @llvm.lifetime.end.p0(i64 16, ptr nonnull %3) #25
  ret i1 %8

16:                                               ; preds = %2
  %17 = landingpad { ptr, i32 }
          cleanup
  br label %_ZN4cvc58internal7IntegerD2Ev.exit7

18:                                               ; preds = %_ZN4cvc58internal7IntegerC2Ei.exit
  %19 = landingpad { ptr, i32 }
          cleanup
  invoke void @__gmpz_clear(ptr noundef nonnull align 8 dereferenceable(16) %4)
          to label %_ZN4cvc58internal7IntegerD2Ev.exit7 unwind label %20

20:                                               ; preds = %18
  %21 = landingpad { ptr, i32 }
          catch ptr null
  %22 = extractvalue { ptr, i32 } %21, 0
  call void @__clang_call_terminate(ptr %22) #26
  unreachable

_ZN4cvc58internal7IntegerD2Ev.exit7:              ; preds = %18, %16
  %.pn = phi { ptr, i32 } [ %17, %16 ], [ %19, %18 ]
  call void @llvm.lifetime.end.p0(i64 16, ptr nonnull %4) #25
  invoke void @__gmpz_clear(ptr noundef nonnull align 8 dereferenceable(16) %3)
          to label %_ZN4cvc58internal7IntegerD2Ev.exit8 unwind label %23

23:                                               ; preds = %_ZN4cvc58internal7IntegerD2Ev.exit7
  %24 = landingpad { ptr, i32 }
          catch ptr null
  %25 = extractvalue { ptr, i32 } %24, 0
  call void @__clang_call_terminate(ptr %25) #26
  unreachable

_ZN4cvc58internal7IntegerD2Ev.exit8:              ; preds = %_ZN4cvc58internal7IntegerD2Ev.exit7
  call void @llvm.lifetime.end.p0(i64 16, ptr nonnull %3) #25
  resume { ptr, i32 } %.pn
}